; Listing generated by Microsoft (R) Optimizing Compiler Version 19.33.31631.0 

	TTL	D:\data\code\cpp\ProjectSandbox\build\ProjectSandbox\ARM64-Debug\intermediates\main.obj
	;ARM64

	AREA	|.drectve|, DRECTVE


	AREA	|.rdata|, DATA, READONLY
|$SG53875| DCB	"C:\\Program Files\\Microsoft Visual Studio\\2022\\Commun"
	DCB	"ity\\VC\\Tools\\MSVC\\14.33.31629\\include\\xlocale", 0x0
	%	6
|$SG47690| DCB	"Size of void pointer: ", 0x0
	EXPORT	|?__empty_global_delete@@YAXPEAX@Z|	; __empty_global_delete
	EXPORT	|?__empty_global_delete@@YAXPEAX_K@Z|	; __empty_global_delete
	EXPORT	|?__empty_global_delete@@YAXPEAXW4align_val_t@std@@@Z| ; __empty_global_delete
	EXPORT	|?__empty_global_delete@@YAXPEAX_KW4align_val_t@std@@@Z| ; __empty_global_delete
	EXPORT	|?length@?$_Narrow_char_traits@DH@std@@SA_KQEBD@Z| ; std::_Narrow_char_traits<char,int>::length
	EXPORT	|?eq_int_type@?$_Narrow_char_traits@DH@std@@SA_NAEBH0@Z| ; std::_Narrow_char_traits<char,int>::eq_int_type
	EXPORT	|?eof@?$_Narrow_char_traits@DH@std@@SAHXZ| ; std::_Narrow_char_traits<char,int>::eof
	EXPORT	|main|
	EXPORT	|??$?6U?$char_traits@D@std@@@std@@YAAEAV?$basic_ostream@DU?$char_traits@D@std@@@0@AEAV10@PEBD@Z| ; std::operator<<<std::char_traits<char> >
	EXPORT	|??$endl@DU?$char_traits@D@std@@@std@@YAAEAV?$basic_ostream@DU?$char_traits@D@std@@@0@AEAV10@@Z| ; std::endl<char,std::char_traits<char> >
	EXPORT	|??0_Sentry_base@?$basic_ostream@DU?$char_traits@D@std@@@std@@QEAA@AEAV12@@Z| ; std::basic_ostream<char,std::char_traits<char> >::_Sentry_base::_Sentry_base
	EXPORT	|??1_Sentry_base@?$basic_ostream@DU?$char_traits@D@std@@@std@@QEAA@XZ| ; std::basic_ostream<char,std::char_traits<char> >::_Sentry_base::~_Sentry_base
	EXPORT	|??0sentry@?$basic_ostream@DU?$char_traits@D@std@@@std@@QEAA@AEAV12@@Z| ; std::basic_ostream<char,std::char_traits<char> >::sentry::sentry
	EXPORT	|??1sentry@?$basic_ostream@DU?$char_traits@D@std@@@std@@QEAA@XZ| ; std::basic_ostream<char,std::char_traits<char> >::sentry::~sentry
	EXPORT	|??Bsentry@?$basic_ostream@DU?$char_traits@D@std@@@std@@QEBA_NXZ| ; std::basic_ostream<char,std::char_traits<char> >::sentry::operator bool
	IMPORT	|?uncaught_exception@std@@YA_NXZ|	; std::uncaught_exception
	IMPORT	|__imp_?good@ios_base@std@@QEBA_NXZ|
	IMPORT	|__imp_?flags@ios_base@std@@QEBAHXZ|
	IMPORT	|__imp_?width@ios_base@std@@QEBA_JXZ|
	IMPORT	|__imp_?width@ios_base@std@@QEAA_J_J@Z|
	IMPORT	|__imp_?sputc@?$basic_streambuf@DU?$char_traits@D@std@@@std@@QEAAHD@Z|
	IMPORT	|__imp_?sputn@?$basic_streambuf@DU?$char_traits@D@std@@@std@@QEAA_JPEBD_J@Z|
	IMPORT	|__imp_?setstate@?$basic_ios@DU?$char_traits@D@std@@@std@@QEAAXH_N@Z|
	IMPORT	|__imp_?tie@?$basic_ios@DU?$char_traits@D@std@@@std@@QEBAPEAV?$basic_ostream@DU?$char_traits@D@std@@@2@XZ|
	IMPORT	|__imp_?rdbuf@?$basic_ios@DU?$char_traits@D@std@@@std@@QEBAPEAV?$basic_streambuf@DU?$char_traits@D@std@@@2@XZ|
	IMPORT	|__imp_?fill@?$basic_ios@DU?$char_traits@D@std@@@std@@QEBADXZ|
	IMPORT	|__imp_?widen@?$basic_ios@DU?$char_traits@D@std@@@std@@QEBADD@Z|
	IMPORT	|__imp_?_Osfx@?$basic_ostream@DU?$char_traits@D@std@@@std@@QEAAXXZ|
	IMPORT	|__imp_??6?$basic_ostream@DU?$char_traits@D@std@@@std@@QEAAAEAV01@P6AAEAV01@AEAV01@@Z@Z|
	IMPORT	|__imp_??6?$basic_ostream@DU?$char_traits@D@std@@@std@@QEAAAEAV01@_K@Z|
	IMPORT	|__imp_?put@?$basic_ostream@DU?$char_traits@D@std@@@std@@QEAAAEAV12@D@Z|
	IMPORT	|__imp_?flush@?$basic_ostream@DU?$char_traits@D@std@@@std@@QEAAAEAV12@XZ|
	IMPORT	|_RTC_CheckStackVars|
	IMPORT	|_RTC_InitBase|
	IMPORT	|_RTC_Shutdown|
	IMPORT	|__CxxFrameHandler3|
	IMPORT	|__GSHandlerCheck_EH|
	IMPORT	|__RTC_memset|
	IMPORT	|__security_pop_cookie|
	IMPORT	|__security_push_cookie|
	IMPORT	|__imp_?cout@std@@3V?$basic_ostream@DU?$char_traits@D@std@@@1@A|

	AREA	|.pdata|, PDATA
|$pdata$?__empty_global_delete@@YAXPEAX@Z| DCD |$LN3|
	DCD	|$unwind$?__empty_global_delete@@YAXPEAX@Z|

	AREA	|.pdata|, PDATA
|$pdata$?__empty_global_delete@@YAXPEAX_K@Z| DCD |$LN3|
	DCD	|$unwind$?__empty_global_delete@@YAXPEAX_K@Z|

	AREA	|.pdata|, PDATA
|$pdata$?__empty_global_delete@@YAXPEAXW4align_val_t@std@@@Z| DCD |$LN3|
	DCD	|$unwind$?__empty_global_delete@@YAXPEAXW4align_val_t@std@@@Z|

	AREA	|.pdata|, PDATA
|$pdata$?__empty_global_delete@@YAXPEAX_KW4align_val_t@std@@@Z| DCD |$LN3|
	DCD	|$unwind$?__empty_global_delete@@YAXPEAX_KW4align_val_t@std@@@Z|

	AREA	|.pdata|, PDATA
|$pdata$?length@?$_Narrow_char_traits@DH@std@@SA_KQEBD@Z| DCD |$LN5|
	DCD	|$unwind$?length@?$_Narrow_char_traits@DH@std@@SA_KQEBD@Z|

	AREA	|.pdata|, PDATA
|$pdata$?eq_int_type@?$_Narrow_char_traits@DH@std@@SA_NAEBH0@Z| DCD |$LN5|
	DCD	|$unwind$?eq_int_type@?$_Narrow_char_traits@DH@std@@SA_NAEBH0@Z|

	AREA	|.pdata|, PDATA
|$pdata$?eof@?$_Narrow_char_traits@DH@std@@SAHXZ| DCD |$LN3|
	DCD	|$unwind$?eof@?$_Narrow_char_traits@DH@std@@SAHXZ|

	AREA	|.pdata|, PDATA
|$pdata$main| DCD |$LN3|
	DCD	|$unwind$main|

	AREA	|.pdata|, PDATA
|$pdata$??$?6U?$char_traits@D@std@@@std@@YAAEAV?$basic_ostream@DU?$char_traits@D@std@@@0@AEAV10@PEBD@Z| DCD |$LN25|
	DCD	|$unwind$??$?6U?$char_traits@D@std@@@std@@YAAEAV?$basic_ostream@DU?$char_traits@D@std@@@0@AEAV10@PEBD@Z|

	AREA	|.pdata|, PDATA
|$pdata$?dtor$0@?0???$?6U?$char_traits@D@std@@@std@@YAAEAV?$basic_ostream@DU?$char_traits@D@std@@@0@AEAV10@PEBD@Z@4HA| DCD |?dtor$0@?0???$?6U?$char_traits@D@std@@@std@@YAAEAV?$basic_ostream@DU?$char_traits@D@std@@@0@AEAV10@PEBD@Z@4HA|
	DCD	|$unwind$?dtor$0@?0???$?6U?$char_traits@D@std@@@std@@YAAEAV?$basic_ostream@DU?$char_traits@D@std@@@0@AEAV10@PEBD@Z@4HA|

	AREA	|.pdata|, PDATA
|$pdata$?catch$1@?0???$?6U?$char_traits@D@std@@@std@@YAAEAV?$basic_ostream@DU?$char_traits@D@std@@@0@AEAV10@PEBD@Z@4HA| DCD |?catch$1@?0???$?6U?$char_traits@D@std@@@std@@YAAEAV?$basic_ostream@DU?$char_traits@D@std@@@0@AEAV10@PEBD@Z@4HA|
	DCD	|$unwind$?catch$1@?0???$?6U?$char_traits@D@std@@@std@@YAAEAV?$basic_ostream@DU?$char_traits@D@std@@@0@AEAV10@PEBD@Z@4HA|

	AREA	|.pdata|, PDATA
|$pdata$??$endl@DU?$char_traits@D@std@@@std@@YAAEAV?$basic_ostream@DU?$char_traits@D@std@@@0@AEAV10@@Z| DCD |$LN3|
	DCD	|$unwind$??$endl@DU?$char_traits@D@std@@@std@@YAAEAV?$basic_ostream@DU?$char_traits@D@std@@@0@AEAV10@@Z|

	AREA	|.pdata|, PDATA
|$pdata$??0_Sentry_base@?$basic_ostream@DU?$char_traits@D@std@@@std@@QEAA@AEAV12@@Z| DCD |$LN4|
	DCD	|$unwind$??0_Sentry_base@?$basic_ostream@DU?$char_traits@D@std@@@std@@QEAA@AEAV12@@Z|

	AREA	|.pdata|, PDATA
|$pdata$??1_Sentry_base@?$basic_ostream@DU?$char_traits@D@std@@@std@@QEAA@XZ| DCD |$LN4|
	DCD	|$unwind$??1_Sentry_base@?$basic_ostream@DU?$char_traits@D@std@@@std@@QEAA@XZ|

	AREA	|.pdata|, PDATA
|$pdata$??0sentry@?$basic_ostream@DU?$char_traits@D@std@@@std@@QEAA@AEAV12@@Z| DCD |$LN7|
	DCD	|$unwind$??0sentry@?$basic_ostream@DU?$char_traits@D@std@@@std@@QEAA@AEAV12@@Z|

	AREA	|.pdata|, PDATA
|$pdata$?dtor$0@?0???0sentry@?$basic_ostream@DU?$char_traits@D@std@@@std@@QEAA@AEAV12@@Z@4HA| DCD |?dtor$0@?0???0sentry@?$basic_ostream@DU?$char_traits@D@std@@@std@@QEAA@AEAV12@@Z@4HA|
	DCD	|$unwind$?dtor$0@?0???0sentry@?$basic_ostream@DU?$char_traits@D@std@@@std@@QEAA@AEAV12@@Z@4HA|

	AREA	|.pdata|, PDATA
|$pdata$??1sentry@?$basic_ostream@DU?$char_traits@D@std@@@std@@QEAA@XZ| DCD |$LN6|
	DCD	|$unwind$??1sentry@?$basic_ostream@DU?$char_traits@D@std@@@std@@QEAA@XZ|

	AREA	|.pdata|, PDATA
|$pdata$??Bsentry@?$basic_ostream@DU?$char_traits@D@std@@@std@@QEBA_NXZ| DCD |$LN3|
	DCD	|$unwind$??Bsentry@?$basic_ostream@DU?$char_traits@D@std@@@std@@QEBA_NXZ|

	AREA	|.rtc$TMZ|, DATA, READONLY
|_RTC_Shutdown.rtc$TMZ| DCQ |_RTC_Shutdown|, 0

	AREA	|.rtc$IMZ|, DATA, READONLY
|_RTC_InitBase.rtc$IMZ| DCQ |_RTC_InitBase|, 0

	AREA	|.xdata|, DATA
|$unwind$??Bsentry@?$basic_ostream@DU?$char_traits@D@std@@@std@@QEBA_NXZ| DCD 0x21a00011
	DCD	0x40d041d0
	DCD	0xd0e101e3
	DCD	0x8542c8c4
	DCD	0xe3e3e3e4
	;Code Words[4], Epilog Start Index[6], E[1], X[0], Function Length[17]=68 bytes
	;save_reg
	;save_reg
	;nop
	;alloc_s
	;set_fp
	;save_reg
	;save_regp
	;save_fplr_x
	;end
	;nop
	;nop
	;nop

	AREA	|.xdata|, DATA
|$ip2state$??1sentry@?$basic_ostream@DU?$char_traits@D@std@@@std@@QEAA@XZ| DCD |??1sentry@?$basic_ostream@DU?$char_traits@D@std@@@std@@QEAA@XZ|
	DCD	0xffffffff

	AREA	|.rdata|, DATA, READONLY
|$cppxdata$??1sentry@?$basic_ostream@DU?$char_traits@D@std@@@std@@QEAA@XZ| DCD 0x19930522
	DCD	0x0
	DCD	0x0
	DCD	0x0
	DCD	0x0
	DCD	0x1
	DCD	|$ip2state$??1sentry@?$basic_ostream@DU?$char_traits@D@std@@@std@@QEAA@XZ|
	DCD	0xffffffc0
	DCD	0x0
	DCD	0x5

	AREA	|.xdata|, DATA
|$unwind$??1sentry@?$basic_ostream@DU?$char_traits@D@std@@@std@@QEAA@XZ| DCD 0x22300029
	DCD	0x40c842c8
	DCD	0x2e3e3e3
	DCD	0xc884c8e1
	DCD	0xe3e48502
	DCD	|__CxxFrameHandler3|
	DCD	|$cppxdata$??1sentry@?$basic_ostream@DU?$char_traits@D@std@@@std@@QEAA@XZ|
	;Code Words[4], Epilog Start Index[8], E[1], X[1], Function Length[41]=164 bytes
	;save_regp
	;save_regp
	;nop
	;nop
	;nop
	;alloc_s
	;set_fp
	;save_regp
	;save_regp
	;save_fplr_x
	;end
	;nop

	AREA	|.xdata|, DATA
|$unwind$?dtor$0@?0???0sentry@?$basic_ostream@DU?$char_traits@D@std@@@std@@QEAA@AEAV12@@Z@4HA| DCD 0x10200009
	DCD	0x42c8c4d0
	DCD	0xe3e3e485
	;Code Words[2], Epilog Start Index[0], E[1], X[0], Function Length[9]=36 bytes
	;save_reg
	;save_regp
	;save_fplr_x
	;end
	;nop
	;nop

	AREA	|.xdata|, DATA
|$ip2state$??0sentry@?$basic_ostream@DU?$char_traits@D@std@@@std@@QEAA@AEAV12@@Z| DCD |??0sentry@?$basic_ostream@DU?$char_traits@D@std@@@std@@QEAA@AEAV12@@Z|
	DCD	0xffffffff
	DCD	|??0sentry@?$basic_ostream@DU?$char_traits@D@std@@@std@@QEAA@AEAV12@@Z|+72
	DCD	0x0
	DCD	|??0sentry@?$basic_ostream@DU?$char_traits@D@std@@@std@@QEAA@AEAV12@@Z|+312
	DCD	0xffffffff

	AREA	|.xdata|, DATA
|$stateUnwindMap$??0sentry@?$basic_ostream@DU?$char_traits@D@std@@@std@@QEAA@AEAV12@@Z| DCD 0xffffffff
	DCD	|?dtor$0@?0???0sentry@?$basic_ostream@DU?$char_traits@D@std@@@std@@QEAA@AEAV12@@Z@4HA|

	AREA	|.rdata|, DATA, READONLY
|$cppxdata$??0sentry@?$basic_ostream@DU?$char_traits@D@std@@@std@@QEAA@AEAV12@@Z| DCD 0x19930522
	DCD	0x1
	DCD	|$stateUnwindMap$??0sentry@?$basic_ostream@DU?$char_traits@D@std@@@std@@QEAA@AEAV12@@Z|
	DCD	0x0
	DCD	0x0
	DCD	0x3
	DCD	|$ip2state$??0sentry@?$basic_ostream@DU?$char_traits@D@std@@@std@@QEAA@AEAV12@@Z|
	DCD	0xffffffc8
	DCD	0x0
	DCD	0x1

	AREA	|.xdata|, DATA
|$unwind$??0sentry@?$basic_ostream@DU?$char_traits@D@std@@@std@@QEAA@AEAV12@@Z| DCD 0x22300054
	DCD	0x40c842c8
	DCD	0x2e3e3e3
	DCD	0xc884c8e1
	DCD	0xe3e48502
	DCD	|__CxxFrameHandler3|
	DCD	|$cppxdata$??0sentry@?$basic_ostream@DU?$char_traits@D@std@@@std@@QEAA@AEAV12@@Z|
	;Code Words[4], Epilog Start Index[8], E[1], X[1], Function Length[84]=336 bytes
	;save_regp
	;save_regp
	;nop
	;nop
	;nop
	;alloc_s
	;set_fp
	;save_regp
	;save_regp
	;save_fplr_x
	;end
	;nop

	AREA	|.xdata|, DATA
|$ip2state$??1_Sentry_base@?$basic_ostream@DU?$char_traits@D@std@@@std@@QEAA@XZ| DCD |??1_Sentry_base@?$basic_ostream@DU?$char_traits@D@std@@@std@@QEAA@XZ|
	DCD	0xffffffff

	AREA	|.rdata|, DATA, READONLY
|$cppxdata$??1_Sentry_base@?$basic_ostream@DU?$char_traits@D@std@@@std@@QEAA@XZ| DCD 0x19930522
	DCD	0x0
	DCD	0x0
	DCD	0x0
	DCD	0x0
	DCD	0x1
	DCD	|$ip2state$??1_Sentry_base@?$basic_ostream@DU?$char_traits@D@std@@@std@@QEAA@XZ|
	DCD	0xffffffc0
	DCD	0x0
	DCD	0x5

	AREA	|.xdata|, DATA
|$unwind$??1_Sentry_base@?$basic_ostream@DU?$char_traits@D@std@@@std@@QEAA@XZ| DCD 0x22300029
	DCD	0x40c842c8
	DCD	0x2e3e3e3
	DCD	0xc884c8e1
	DCD	0xe3e48502
	DCD	|__CxxFrameHandler3|
	DCD	|$cppxdata$??1_Sentry_base@?$basic_ostream@DU?$char_traits@D@std@@@std@@QEAA@XZ|
	;Code Words[4], Epilog Start Index[8], E[1], X[1], Function Length[41]=164 bytes
	;save_regp
	;save_regp
	;nop
	;nop
	;nop
	;alloc_s
	;set_fp
	;save_regp
	;save_regp
	;save_fplr_x
	;end
	;nop

	AREA	|.xdata|, DATA
|$unwind$??0_Sentry_base@?$basic_ostream@DU?$char_traits@D@std@@@std@@QEAA@AEAV12@@Z| DCD 0x21e0002b
	DCD	0x40c842c8
	DCD	0xe102e3e3
	DCD	0x42c8c4d0
	DCD	0xe3e3e485
	;Code Words[4], Epilog Start Index[7], E[1], X[0], Function Length[43]=172 bytes
	;save_regp
	;save_regp
	;nop
	;nop
	;alloc_s
	;set_fp
	;save_reg
	;save_regp
	;save_fplr_x
	;end
	;nop
	;nop

	AREA	|.xdata|, DATA
|$unwind$??$endl@DU?$char_traits@D@std@@@std@@YAAEAV?$basic_ostream@DU?$char_traits@D@std@@@0@AEAV10@@Z| DCD 0x21a00026
	DCD	0x40d041d0
	DCD	0xd0e101e3
	DCD	0x8542c8c4
	DCD	0xe3e3e3e4
	;Code Words[4], Epilog Start Index[6], E[1], X[0], Function Length[38]=152 bytes
	;save_reg
	;save_reg
	;nop
	;alloc_s
	;set_fp
	;save_reg
	;save_regp
	;save_fplr_x
	;end
	;nop
	;nop
	;nop

	AREA	|.xdata|, DATA
|$unwind$?catch$1@?0???$?6U?$char_traits@D@std@@@std@@YAAEAV?$basic_ostream@DU?$char_traits@D@std@@@0@AEAV10@PEBD@Z@4HA| DCD 0x10500019
	DCD	0x14
	DCD	0x42c8c4d0
	DCD	0xe3e3e485
	DCD	|__CxxFrameHandler3|
	DCD	|$cppxdata$??$?6U?$char_traits@D@std@@@std@@YAAEAV?$basic_ostream@DU?$char_traits@D@std@@@0@AEAV10@PEBD@Z|
	;Code Words[2], Epilog Count[1], E[0], X[1], Function Length[25]=100 bytes
	;Epilog Start Index[0], Epilog Start Offset[20]=80 bytes
	;save_reg
	;save_regp
	;save_fplr_x
	;end
	;nop
	;nop

	AREA	|.xdata|, DATA
|$unwind$?dtor$0@?0???$?6U?$char_traits@D@std@@@std@@YAAEAV?$basic_ostream@DU?$char_traits@D@std@@@0@AEAV10@PEBD@Z@4HA| DCD 0x10200009
	DCD	0x42c8c4d0
	DCD	0xe3e3e485
	;Code Words[2], Epilog Start Index[0], E[1], X[0], Function Length[9]=36 bytes
	;save_reg
	;save_regp
	;save_fplr_x
	;end
	;nop
	;nop

	AREA	|.xdata|, DATA
|$ip2state$??$?6U?$char_traits@D@std@@@std@@YAAEAV?$basic_ostream@DU?$char_traits@D@std@@@0@AEAV10@PEBD@Z| DCD |??$?6U?$char_traits@D@std@@@std@@YAAEAV?$basic_ostream@DU?$char_traits@D@std@@@0@AEAV10@PEBD@Z|
	DCD	0xffffffff
	DCD	|??$?6U?$char_traits@D@std@@@std@@YAAEAV?$basic_ostream@DU?$char_traits@D@std@@@0@AEAV10@PEBD@Z|+292
	DCD	0x0
	DCD	|??$?6U?$char_traits@D@std@@@std@@YAAEAV?$basic_ostream@DU?$char_traits@D@std@@@0@AEAV10@PEBD@Z|+332
	DCD	0x1
	DCD	|??$?6U?$char_traits@D@std@@@std@@YAAEAV?$basic_ostream@DU?$char_traits@D@std@@@0@AEAV10@PEBD@Z|+1044
	DCD	0x0
	DCD	|??$?6U?$char_traits@D@std@@@std@@YAAEAV?$basic_ostream@DU?$char_traits@D@std@@@0@AEAV10@PEBD@Z|+1112
	DCD	0xffffffff
	DCD	|?catch$1@?0???$?6U?$char_traits@D@std@@@std@@YAAEAV?$basic_ostream@DU?$char_traits@D@std@@@0@AEAV10@PEBD@Z@4HA|
	DCD	0x0
	DCD	|?catch$1@?0???$?6U?$char_traits@D@std@@@std@@YAAEAV?$basic_ostream@DU?$char_traits@D@std@@@0@AEAV10@PEBD@Z@4HA|+12
	DCD	0x2
	DCD	|?catch$1@?0???$?6U?$char_traits@D@std@@@std@@YAAEAV?$basic_ostream@DU?$char_traits@D@std@@@0@AEAV10@PEBD@Z@4HA|+72
	DCD	0x0

	AREA	|.xdata|, DATA
|$handlerMap$0$??$?6U?$char_traits@D@std@@@std@@YAAEAV?$basic_ostream@DU?$char_traits@D@std@@@0@AEAV10@PEBD@Z| DCD 0x40
	DCD	0x0
	DCD	0x0
	DCD	|?catch$1@?0???$?6U?$char_traits@D@std@@@std@@YAAEAV?$basic_ostream@DU?$char_traits@D@std@@@0@AEAV10@PEBD@Z@4HA|
	DCD	0x0

	AREA	|.xdata|, DATA
|$tryMap$??$?6U?$char_traits@D@std@@@std@@YAAEAV?$basic_ostream@DU?$char_traits@D@std@@@0@AEAV10@PEBD@Z| DCD 0x1
	DCD	0x1
	DCD	0x2
	DCD	0x1
	DCD	|$handlerMap$0$??$?6U?$char_traits@D@std@@@std@@YAAEAV?$basic_ostream@DU?$char_traits@D@std@@@0@AEAV10@PEBD@Z|

	AREA	|.xdata|, DATA
|$stateUnwindMap$??$?6U?$char_traits@D@std@@@std@@YAAEAV?$basic_ostream@DU?$char_traits@D@std@@@0@AEAV10@PEBD@Z| DCD 0xffffffff
	DCD	|?dtor$0@?0???$?6U?$char_traits@D@std@@@std@@YAAEAV?$basic_ostream@DU?$char_traits@D@std@@@0@AEAV10@PEBD@Z@4HA|
	DCD	0x0
	DCD	0x0
	DCD	0x0
	DCD	0x0

	AREA	|.xdata|, DATA
|$unwind$??$?6U?$char_traits@D@std@@@std@@YAAEAV?$basic_ostream@DU?$char_traits@D@std@@@0@AEAV10@PEBD@Z| DCD 0x10300127
	DCD	0xc884c8e1
	DCD	0xe3e48502
	DCD	|__GSHandlerCheck_EH|
	DCD	|$cppxdata$??$?6U?$char_traits@D@std@@@std@@YAAEAV?$basic_ostream@DU?$char_traits@D@std@@@0@AEAV10@PEBD@Z|
	DCD	0xffffffcb
	;Code Words[2], Epilog Start Index[0], E[1], X[1], Function Length[295]=1180 bytes
	;set_fp
	;save_regp
	;save_regp
	;save_fplr_x
	;end
	;nop

	AREA	|.rdata|, DATA, READONLY
|??$?6U?$char_traits@D@std@@@std@@YAAEAV?$basic_ostream@DU?$char_traits@D@std@@@0@AEAV10@PEBD@Z$rtcName$0| DCB 0x5f ; std::operator<<<std::char_traits<char> >
	DCB	0x4f
	DCB	0x6b
	DCB	0x0
	%	12
|??$?6U?$char_traits@D@std@@@std@@YAAEAV?$basic_ostream@DU?$char_traits@D@std@@@0@AEAV10@PEBD@Z$rtcVarDesc| DCD 0x30 ; std::operator<<<std::char_traits<char> >
	DCD	0x10
	DCQ	|??$?6U?$char_traits@D@std@@@std@@YAAEAV?$basic_ostream@DU?$char_traits@D@std@@@0@AEAV10@PEBD@Z$rtcName$0|, 0
	%	48
|??$?6U?$char_traits@D@std@@@std@@YAAEAV?$basic_ostream@DU?$char_traits@D@std@@@0@AEAV10@PEBD@Z$rtcFrameData| DCD 0x1 ; std::operator<<<std::char_traits<char> >
	DCD	0x0
	DCQ	|??$?6U?$char_traits@D@std@@@std@@YAAEAV?$basic_ostream@DU?$char_traits@D@std@@@0@AEAV10@PEBD@Z$rtcVarDesc|, 0
|$cppxdata$??$?6U?$char_traits@D@std@@@std@@YAAEAV?$basic_ostream@DU?$char_traits@D@std@@@0@AEAV10@PEBD@Z| DCD 0x19930522
	DCD	0x3
	DCD	|$stateUnwindMap$??$?6U?$char_traits@D@std@@@std@@YAAEAV?$basic_ostream@DU?$char_traits@D@std@@@0@AEAV10@PEBD@Z|
	DCD	0x1
	DCD	|$tryMap$??$?6U?$char_traits@D@std@@@std@@YAAEAV?$basic_ostream@DU?$char_traits@D@std@@@0@AEAV10@PEBD@Z|
	DCD	0x8
	DCD	|$ip2state$??$?6U?$char_traits@D@std@@@std@@YAAEAV?$basic_ostream@DU?$char_traits@D@std@@@0@AEAV10@PEBD@Z|
	DCD	0xffffff48
	DCD	0x0
	DCD	0x1

	AREA	|.xdata|, DATA
|$unwind$main| DCD 0x21a00020
	DCD	0x40d041d0
	DCD	0xd0e101e3
	DCD	0x8542c8c4
	DCD	0xe3e3e3e4
	;Code Words[4], Epilog Start Index[6], E[1], X[0], Function Length[32]=128 bytes
	;save_reg
	;save_reg
	;nop
	;alloc_s
	;set_fp
	;save_reg
	;save_regp
	;save_fplr_x
	;end
	;nop
	;nop
	;nop

	AREA	|.xdata|, DATA
|$unwind$?eof@?$_Narrow_char_traits@DH@std@@SAHXZ| DCD 0x1020000a
	DCD	0xc8c4d0e1
	DCD	0xe3e48542
	;Code Words[2], Epilog Start Index[0], E[1], X[0], Function Length[10]=40 bytes
	;set_fp
	;save_reg
	;save_regp
	;save_fplr_x
	;end
	;nop

	AREA	|.xdata|, DATA
|$unwind$?eq_int_type@?$_Narrow_char_traits@DH@std@@SA_NAEBH0@Z| DCD 0x21e0001e
	DCD	0x40c842c8
	DCD	0xe102e3e3
	DCD	0x42c8c4d0
	DCD	0xe3e3e485
	;Code Words[4], Epilog Start Index[7], E[1], X[0], Function Length[30]=120 bytes
	;save_regp
	;save_regp
	;nop
	;nop
	;alloc_s
	;set_fp
	;save_reg
	;save_regp
	;save_fplr_x
	;end
	;nop
	;nop

	AREA	|.xdata|, DATA
|$unwind$?length@?$_Narrow_char_traits@DH@std@@SA_KQEBD@Z| DCD 0x21e0001e
	DCD	0x40c842c8
	DCD	0xe102e3e3
	DCD	0x42c8c4d0
	DCD	0xe3e3e485
	;Code Words[4], Epilog Start Index[7], E[1], X[0], Function Length[30]=120 bytes
	;save_regp
	;save_regp
	;nop
	;nop
	;alloc_s
	;set_fp
	;save_reg
	;save_regp
	;save_fplr_x
	;end
	;nop
	;nop

	AREA	|.xdata|, DATA
|$unwind$?__empty_global_delete@@YAXPEAX_KW4align_val_t@std@@@Z| DCD 0x21e00011
	DCD	0x40c842c8
	DCD	0xe102e3e3
	DCD	0x42c8c4d0
	DCD	0xe3e3e485
	;Code Words[4], Epilog Start Index[7], E[1], X[0], Function Length[17]=68 bytes
	;save_regp
	;save_regp
	;nop
	;nop
	;alloc_s
	;set_fp
	;save_reg
	;save_regp
	;save_fplr_x
	;end
	;nop
	;nop

	AREA	|.xdata|, DATA
|$unwind$?__empty_global_delete@@YAXPEAXW4align_val_t@std@@@Z| DCD 0x21a0000f
	DCD	0x40d041d0
	DCD	0xd0e101e3
	DCD	0x8542c8c4
	DCD	0xe3e3e3e4
	;Code Words[4], Epilog Start Index[6], E[1], X[0], Function Length[15]=60 bytes
	;save_reg
	;save_reg
	;nop
	;alloc_s
	;set_fp
	;save_reg
	;save_regp
	;save_fplr_x
	;end
	;nop
	;nop
	;nop

	AREA	|.xdata|, DATA
|$unwind$?__empty_global_delete@@YAXPEAX_K@Z| DCD 0x21a0000f
	DCD	0x40d041d0
	DCD	0xd0e101e3
	DCD	0x8542c8c4
	DCD	0xe3e3e3e4
	;Code Words[4], Epilog Start Index[6], E[1], X[0], Function Length[15]=60 bytes
	;save_reg
	;save_reg
	;nop
	;alloc_s
	;set_fp
	;save_reg
	;save_regp
	;save_fplr_x
	;end
	;nop
	;nop
	;nop

	AREA	|.xdata|, DATA
|$unwind$?__empty_global_delete@@YAXPEAX@Z| DCD 0x21a0000e
	DCD	0x40d041d0
	DCD	0xd0e101e3
	DCD	0x8542c8c4
	DCD	0xe3e3e3e4
	;Code Words[4], Epilog Start Index[6], E[1], X[0], Function Length[14]=56 bytes
	;save_reg
	;save_reg
	;nop
	;alloc_s
	;set_fp
	;save_reg
	;save_regp
	;save_fplr_x
	;end
	;nop
	;nop
	;nop
; Function compile flags: /Odtp /RTCsu
; File C:\Program Files\Microsoft Visual Studio\2022\Community\VC\Tools\MSVC\14.33.31629\include\ostream

	AREA	|.text$mn|, CODE, ARM64

|??Bsentry@?$basic_ostream@DU?$char_traits@D@std@@@std@@QEBA_NXZ| PROC ; std::basic_ostream<char,std::char_traits<char> >::sentry::operator bool

; 123  :         explicit __CLR_OR_THIS_CALL operator bool() const {

|$LN3|
	stp         fp,lr,[sp,#-0x30]!
	stp         x20,x21,[sp,#0x10]
	str         x22,[sp,#0x20]
	mov         fp,sp
	sub         sp,sp,#0x10
	movi        x20,#-0x3333333333333334
	str         x20,[sp]
	str         x20,[sp,#8]
	str         x0,[sp]

; 124  :             return _Ok;

	ldr         x8,[sp]
	add         x8,x8,#8
	ldrb        w0,[x8]
	mov         sp,fp
	ldr         x22,[sp,#0x20]
	ldp         x20,x21,[sp,#0x10]
	ldp         fp,lr,[sp],#0x30
	ret

	ENDP  ; |??Bsentry@?$basic_ostream@DU?$char_traits@D@std@@@std@@QEBA_NXZ|, std::basic_ostream<char,std::char_traits<char> >::sentry::operator bool

; Function compile flags: /Odtp /RTCsu
; File C:\Program Files\Microsoft Visual Studio\2022\Community\VC\Tools\MSVC\14.33.31629\include\ostream

	AREA	|.text$mn|, CODE, ARM64

|??1sentry@?$basic_ostream@DU?$char_traits@D@std@@@std@@QEAA@XZ| PROC ; std::basic_ostream<char,std::char_traits<char> >::sentry::~sentry

; 108  :         __CLR_OR_THIS_CALL ~sentry() noexcept {

|$LN6|
	stp         fp,lr,[sp,#-0x30]!
	stp         x19,x20,[sp,#0x10]
	stp         x21,x22,[sp,#0x20]
	mov         fp,sp
	sub         sp,sp,#0x20
	mov         x19,sp
	movi        x20,#-0x3333333333333334
	movi        x21,#-0x3333333333333334
	stp         x20,x21,[sp]
	stp         x20,x21,[sp,#0x10]
	mov         xip0,#-2
	str         xip0,[x19,#0x10]
	str         x0,[x19]

; 109  : #if !_HAS_EXCEPTIONS
; 110  :             const bool _Zero_uncaught_exceptions = true;
; 111  : #elif _HAS_DEPRECATED_UNCAUGHT_EXCEPTION
; 112  :             const bool _Zero_uncaught_exceptions = !_STD uncaught_exception(); // TRANSITION, ArchivedOS-12000909

	bl          |?uncaught_exception@std@@YA_NXZ|
	uxtb        w8,w0
	mov         w8,w8
	cmp         w8,#0
	bne         |$LN4@sentry|
	mov         w8,#1
	strb        w8,[x19,#0x18]
	b           |$LN5@sentry|
|$LN4@sentry|
	mov         w8,#0
	strb        w8,[x19,#0x18]
|$LN5@sentry|
	ldrb        w8,[x19,#0x18]
	strb        w8,[x19,#8]

; 113  : #else // ^^^ _HAS_DEPRECATED_UNCAUGHT_EXCEPTION / !_HAS_DEPRECATED_UNCAUGHT_EXCEPTION vvv
; 114  :             const bool _Zero_uncaught_exceptions = _STD uncaught_exceptions() == 0;
; 115  : #endif // !_HAS_DEPRECATED_UNCAUGHT_EXCEPTION
; 116  : 
; 117  :             if (_Zero_uncaught_exceptions) {

	ldrb        w8,[x19,#8]
	mov         w8,w8
	cmp         w8,#0
	beq         |$LN2@sentry|

; 118  :                 this->_Myostr._Osfx();

	ldr         x8,[x19]
	ldr         x0,[x8]
	adrp        x8,|__imp_?_Osfx@?$basic_ostream@DU?$char_traits@D@std@@@std@@QEAAXXZ|
	ldr         x8,[x8,|__imp_?_Osfx@?$basic_ostream@DU?$char_traits@D@std@@@std@@QEAAXXZ|]
	blr         x8
|$LN2@sentry|

; 119  :             }
; 120  :         }

	ldr         x0,[x19]
	bl          |??1_Sentry_base@?$basic_ostream@DU?$char_traits@D@std@@@std@@QEAA@XZ|
	mov         sp,fp
	ldp         x21,x22,[sp,#0x20]
	ldp         x19,x20,[sp,#0x10]
	ldp         fp,lr,[sp],#0x30
	ret

	ENDP  ; |??1sentry@?$basic_ostream@DU?$char_traits@D@std@@@std@@QEAA@XZ|, std::basic_ostream<char,std::char_traits<char> >::sentry::~sentry

; Function compile flags: /Odtp /RTCsu
; File C:\Program Files\Microsoft Visual Studio\2022\Community\VC\Tools\MSVC\14.33.31629\include\ostream

	AREA	|.text$mn|, CODE, ARM64

|??0sentry@?$basic_ostream@DU?$char_traits@D@std@@@std@@QEAA@AEAV12@@Z| PROC ; std::basic_ostream<char,std::char_traits<char> >::sentry::sentry

; 91   :         explicit __CLR_OR_THIS_CALL sentry(basic_ostream& _Ostr) : _Sentry_base(_Ostr) {

|$LN7|
	stp         fp,lr,[sp,#-0x30]!
	stp         x19,x20,[sp,#0x10]
	stp         x21,x22,[sp,#0x20]
	mov         fp,sp
	sub         sp,sp,#0x20
	mov         x19,sp
	movi        x20,#-0x3333333333333334
	movi        x21,#-0x3333333333333334
	stp         x20,x21,[sp]
	stp         x20,x21,[sp,#0x10]
	mov         xip0,#-2
	str         xip0,[x19,#0x18]
	str         x0,[x19,#8]
	str         x1,[x19]
	ldr         x1,[x19]
	ldr         x0,[x19,#8]
	bl          |??0_Sentry_base@?$basic_ostream@DU?$char_traits@D@std@@@std@@QEAA@AEAV12@@Z|
	nop

; 92   :             if (!_Ostr.good()) {

	ldr         x8,[x19]
	ldr         x8,[x8]
	add         x8,x8,#4
	ldr         w8,[x8]
	sxtw        x9,w8
	ldr         x8,[x19]
	add         x0,x8,x9
	adrp        x8,|__imp_?good@ios_base@std@@QEBA_NXZ|
	ldr         x8,[x8,|__imp_?good@ios_base@std@@QEBA_NXZ|]
	blr         x8
	uxtb        w8,w0
	mov         w8,w8
	cmp         w8,#0
	bne         |$LN2@sentry|

; 93   :                 _Ok = false;

	ldr         x8,[x19,#8]
	add         x9,x8,#8
	mov         w8,#0
	strb        w8,[x9]

; 94   :                 return;

	b           |$LN1@sentry|
|$LN2@sentry|

; 95   :             }
; 96   : 
; 97   :             const auto _Tied = _Ostr.tie();

	ldr         x8,[x19]
	ldr         x8,[x8]
	add         x8,x8,#4
	ldr         w8,[x8]
	sxtw        x9,w8
	ldr         x8,[x19]
	add         x0,x8,x9
	adrp        x8,|__imp_?tie@?$basic_ios@DU?$char_traits@D@std@@@std@@QEBAPEAV?$basic_ostream@DU?$char_traits@D@std@@@2@XZ|
	ldr         x8,[x8,|__imp_?tie@?$basic_ios@DU?$char_traits@D@std@@@std@@QEBAPEAV?$basic_ostream@DU?$char_traits@D@std@@@2@XZ|]
	blr         x8
	str         x0,[x19,#0x10]

; 98   :             if (!_Tied || _Tied == &_Ostr) {

	ldr         x8,[x19,#0x10]
	cmp         x8,#0
	beq         |$LN4@sentry|
	ldr         x9,[x19]
	ldr         x8,[x19,#0x10]
	cmp         x8,x9
	bne         |$LN3@sentry|
|$LN4@sentry|

; 99   :                 _Ok = true;

	ldr         x8,[x19,#8]
	add         x9,x8,#8
	mov         w8,#1
	strb        w8,[x9]

; 100  :                 return;

	b           |$LN1@sentry|
|$LN3@sentry|

; 101  :             }
; 102  : 
; 103  :             _Tied->flush();

	ldr         x0,[x19,#0x10]
	adrp        x8,|__imp_?flush@?$basic_ostream@DU?$char_traits@D@std@@@std@@QEAAAEAV12@XZ|
	ldr         x8,[x8,|__imp_?flush@?$basic_ostream@DU?$char_traits@D@std@@@std@@QEAAAEAV12@XZ|]
	blr         x8

; 104  :             _Ok = _Ostr.good(); // store test only after flushing tie

	ldr         x8,[x19]
	ldr         x8,[x8]
	add         x8,x8,#4
	ldr         w8,[x8]
	sxtw        x9,w8
	ldr         x8,[x19]
	add         x0,x8,x9
	adrp        x8,|__imp_?good@ios_base@std@@QEBA_NXZ|
	ldr         x8,[x8,|__imp_?good@ios_base@std@@QEBA_NXZ|]
	blr         x8
	uxtb        w9,w0
	ldr         x8,[x19,#8]
	add         x8,x8,#8
	strb        w9,[x8]
|$LN1@sentry|

; 105  :         }

	ldr         x0,[x19,#8]
	mov         sp,fp
	ldp         x21,x22,[sp,#0x20]
	ldp         x19,x20,[sp,#0x10]
	ldp         fp,lr,[sp],#0x30
	ret

	ENDP  ; |??0sentry@?$basic_ostream@DU?$char_traits@D@std@@@std@@QEAA@AEAV12@@Z|, std::basic_ostream<char,std::char_traits<char> >::sentry::sentry

; Function compile flags: /Odtp /RTCsu

	AREA	|.text$x|, DATA

|?dtor$0@?0???0sentry@?$basic_ostream@DU?$char_traits@D@std@@@std@@QEAA@AEAV12@@Z@4HA| PROC ; `std::basic_ostream<char,std::char_traits<char> >::sentry::sentry'::`1'::dtor$0
	stp         fp,lr,[sp,#-0x30]!
	stp         x20,x21,[sp,#0x10]
	str         x22,[sp,#0x20]
	ldr         x0,[x19,#8]
	bl          |??1_Sentry_base@?$basic_ostream@DU?$char_traits@D@std@@@std@@QEAA@XZ|
	ldr         x22,[sp,#0x20]
	ldp         x20,x21,[sp,#0x10]
	ldp         fp,lr,[sp],#0x30
	ret

	ENDP  ; |??0sentry@?$basic_ostream@DU?$char_traits@D@std@@@std@@QEAA@AEAV12@@Z|, std::basic_ostream<char,std::char_traits<char> >::sentry::sentry

; Function compile flags: /Odtp /RTCsu
; File C:\Program Files\Microsoft Visual Studio\2022\Community\VC\Tools\MSVC\14.33.31629\include\ostream

	AREA	|.text$mn|, CODE, ARM64

|??1_Sentry_base@?$basic_ostream@DU?$char_traits@D@std@@@std@@QEAA@XZ| PROC ; std::basic_ostream<char,std::char_traits<char> >::_Sentry_base::~_Sentry_base

; 77   :         __CLR_OR_THIS_CALL ~_Sentry_base() noexcept { // destroy after unlocking

|$LN4|
	stp         fp,lr,[sp,#-0x30]!
	stp         x19,x20,[sp,#0x10]
	stp         x21,x22,[sp,#0x20]
	mov         fp,sp
	sub         sp,sp,#0x20
	mov         x19,sp
	movi        x20,#-0x3333333333333334
	movi        x21,#-0x3333333333333334
	stp         x20,x21,[sp]
	stp         x20,x21,[sp,#0x10]
	mov         xip0,#-2
	str         xip0,[x19,#0x10]
	str         x0,[x19]

; 78   :             const auto _Rdbuf = _Myostr.rdbuf();

	ldr         x8,[x19]
	ldr         x8,[x8]
	str         x8,[x19,#0x18]
	ldr         x8,[x19,#0x18]
	ldr         x8,[x8]
	add         x8,x8,#4
	ldr         w8,[x8]
	sxtw        x9,w8
	ldr         x8,[x19,#0x18]
	add         x0,x8,x9
	adrp        x8,|__imp_?rdbuf@?$basic_ios@DU?$char_traits@D@std@@@std@@QEBAPEAV?$basic_streambuf@DU?$char_traits@D@std@@@2@XZ|
	ldr         x8,[x8,|__imp_?rdbuf@?$basic_ios@DU?$char_traits@D@std@@@std@@QEBAPEAV?$basic_streambuf@DU?$char_traits@D@std@@@2@XZ|]
	blr         x8
	str         x0,[x19,#8]

; 79   :             if (_Rdbuf) {

	ldr         x8,[x19,#8]
	cmp         x8,#0
	beq         |$LN2@Sentry_bas|

; 80   :                 _Rdbuf->_Unlock();

	ldr         x8,[x19,#8]
	ldr         x8,[x8]
	add         x8,x8,#0x10
	ldr         x0,[x19,#8]
	ldr         x8,[x8]
	blr         x8
|$LN2@Sentry_bas|
	mov         sp,fp
	ldp         x21,x22,[sp,#0x20]
	ldp         x19,x20,[sp,#0x10]
	ldp         fp,lr,[sp],#0x30
	ret

	ENDP  ; |??1_Sentry_base@?$basic_ostream@DU?$char_traits@D@std@@@std@@QEAA@XZ|, std::basic_ostream<char,std::char_traits<char> >::_Sentry_base::~_Sentry_base

; Function compile flags: /Odtp /RTCsu
; File C:\Program Files\Microsoft Visual Studio\2022\Community\VC\Tools\MSVC\14.33.31629\include\ostream

	AREA	|.text$mn|, CODE, ARM64

|??0_Sentry_base@?$basic_ostream@DU?$char_traits@D@std@@@std@@QEAA@AEAV12@@Z| PROC ; std::basic_ostream<char,std::char_traits<char> >::_Sentry_base::_Sentry_base

; 70   :         __CLR_OR_THIS_CALL _Sentry_base(basic_ostream& _Ostr) : _Myostr(_Ostr) { // lock the stream buffer, if there

|$LN4|
	stp         fp,lr,[sp,#-0x30]!
	stp         x20,x21,[sp,#0x10]
	str         x22,[sp,#0x20]
	mov         fp,sp
	sub         sp,sp,#0x20
	movi        x20,#-0x3333333333333334
	movi        x21,#-0x3333333333333334
	stp         x20,x21,[sp]
	stp         x20,x21,[sp,#0x10]
	str         x0,[sp,#8]
	str         x1,[sp]
	ldr         x9,[sp,#8]
	ldr         x8,[sp]
	str         x8,[x9]

; 71   :             const auto _Rdbuf = _Myostr.rdbuf();

	ldr         x8,[sp,#8]
	ldr         x8,[x8]
	str         x8,[sp,#0x18]
	ldr         x8,[sp,#0x18]
	ldr         x8,[x8]
	add         x8,x8,#4
	ldr         w8,[x8]
	sxtw        x9,w8
	ldr         x8,[sp,#0x18]
	add         x0,x8,x9
	adrp        x8,|__imp_?rdbuf@?$basic_ios@DU?$char_traits@D@std@@@std@@QEBAPEAV?$basic_streambuf@DU?$char_traits@D@std@@@2@XZ|
	ldr         x8,[x8,|__imp_?rdbuf@?$basic_ios@DU?$char_traits@D@std@@@std@@QEBAPEAV?$basic_streambuf@DU?$char_traits@D@std@@@2@XZ|]
	blr         x8
	str         x0,[sp,#0x10]

; 72   :             if (_Rdbuf) {

	ldr         x8,[sp,#0x10]
	cmp         x8,#0
	beq         |$LN2@Sentry_bas|

; 73   :                 _Rdbuf->_Lock();

	ldr         x8,[sp,#0x10]
	ldr         x8,[x8]
	add         x8,x8,#8
	ldr         x0,[sp,#0x10]
	ldr         x8,[x8]
	blr         x8
|$LN2@Sentry_bas|

; 74   :             }
; 75   :         }

	ldr         x0,[sp,#8]
	mov         sp,fp
	ldr         x22,[sp,#0x20]
	ldp         x20,x21,[sp,#0x10]
	ldp         fp,lr,[sp],#0x30
	ret

	ENDP  ; |??0_Sentry_base@?$basic_ostream@DU?$char_traits@D@std@@@std@@QEAA@AEAV12@@Z|, std::basic_ostream<char,std::char_traits<char> >::_Sentry_base::_Sentry_base

; Function compile flags: /Odtp /RTCsu
; File C:\Program Files\Microsoft Visual Studio\2022\Community\VC\Tools\MSVC\14.33.31629\include\ostream

	AREA	|.text$mn|, CODE, ARM64

|??$endl@DU?$char_traits@D@std@@@std@@YAAEAV?$basic_ostream@DU?$char_traits@D@std@@@0@AEAV10@@Z| PROC ; std::endl<char,std::char_traits<char> >

; 1005 :     basic_ostream<_Elem, _Traits>& _Ostr) { // insert newline and flush stream

|$LN3|
	stp         fp,lr,[sp,#-0x30]!
	stp         x20,x21,[sp,#0x10]
	str         x22,[sp,#0x20]
	mov         fp,sp
	sub         sp,sp,#0x10
	movi        x20,#-0x3333333333333334
	str         x20,[sp]
	str         x20,[sp,#8]
	str         x0,[sp]

; 1006 :     _Ostr.put(_Ostr.widen('\n'));

	ldr         x8,[sp]
	ldr         x8,[x8]
	add         x8,x8,#4
	ldr         w8,[x8]
	sxtw        x9,w8
	ldr         x8,[sp]
	add         x8,x8,x9
	str         x8,[sp,#8]
	mov         w1,#0xA
	ldr         x0,[sp,#8]
	adrp        x8,|__imp_?widen@?$basic_ios@DU?$char_traits@D@std@@@std@@QEBADD@Z|
	ldr         x8,[x8,|__imp_?widen@?$basic_ios@DU?$char_traits@D@std@@@std@@QEBADD@Z|]
	blr         x8
	sxtb        w1,w0
	mov         w1,w1
	ldr         x0,[sp]
	adrp        x8,|__imp_?put@?$basic_ostream@DU?$char_traits@D@std@@@std@@QEAAAEAV12@D@Z|
	ldr         x8,[x8,|__imp_?put@?$basic_ostream@DU?$char_traits@D@std@@@std@@QEAAAEAV12@D@Z|]
	blr         x8

; 1007 :     _Ostr.flush();

	ldr         x0,[sp]
	adrp        x8,|__imp_?flush@?$basic_ostream@DU?$char_traits@D@std@@@std@@QEAAAEAV12@XZ|
	ldr         x8,[x8,|__imp_?flush@?$basic_ostream@DU?$char_traits@D@std@@@std@@QEAAAEAV12@XZ|]
	blr         x8

; 1008 :     return _Ostr;

	ldr         x0,[sp]
	mov         sp,fp
	ldr         x22,[sp,#0x20]
	ldp         x20,x21,[sp,#0x10]
	ldp         fp,lr,[sp],#0x30
	ret

	ENDP  ; |??$endl@DU?$char_traits@D@std@@@std@@YAAEAV?$basic_ostream@DU?$char_traits@D@std@@@0@AEAV10@@Z|, std::endl<char,std::char_traits<char> >

; Function compile flags: /Odtp /RTCsu
; File C:\Program Files\Microsoft Visual Studio\2022\Community\VC\Tools\MSVC\14.33.31629\include\ostream

	AREA	|.text$mn|, CODE, ARM64

|??$?6U?$char_traits@D@std@@@std@@YAAEAV?$basic_ostream@DU?$char_traits@D@std@@@0@AEAV10@PEBD@Z| PROC ; std::operator<<<std::char_traits<char> >

; 761  : basic_ostream<char, _Traits>& operator<<(basic_ostream<char, _Traits>& _Ostr, const char* _Val) {

|$LN25|
	stp         fp,lr,[sp,#-0x30]!
	stp         x19,x20,[sp,#0x10]
	stp         x21,x22,[sp,#0x20]
	mov         fp,sp
	bl          __security_push_cookie
	sub         sp,sp,#0xE0
	mov         x19,sp
	mov         x20,x0
	mov         x21,x1
	mov         x22,x2
	mov         x0,sp
	movi        x1,#-0x3333333333333334
	mov         x2,#0xE0
	bl          __RTC_memset
	mov         x0,x20
	mov         x1,x21
	mov         x2,x22
	mov         xip0,#-2
	str         xip0,[x19,#0x68]
	str         x0,[x19]
	str         x1,[x19,#8]

; 762  :     // insert NTBS into char stream
; 763  :     using _Elem = char;
; 764  :     using _Myos = basic_ostream<_Elem, _Traits>;
; 765  : 
; 766  :     ios_base::iostate _State = ios_base::goodbit;

	mov         w8,#0
	str         w8,[x19,#0x10]

; 767  :     streamsize _Count        = static_cast<streamsize>(_Traits::length(_Val));

	ldr         x0,[x19,#8]
	bl          |?length@?$_Narrow_char_traits@DH@std@@SA_KQEBD@Z|
	str         x0,[x19,#0x18]

; 768  :     streamsize _Pad          = _Ostr.width() <= 0 || _Ostr.width() <= _Count ? 0 : _Ostr.width() - _Count;

	ldr         x8,[x19]
	ldr         x8,[x8]
	add         x8,x8,#4
	ldr         w8,[x8]
	sxtw        x9,w8
	ldr         x8,[x19]
	add         x0,x8,x9
	adrp        x8,|__imp_?width@ios_base@std@@QEBA_JXZ|
	ldr         x8,[x8,|__imp_?width@ios_base@std@@QEBA_JXZ|]
	blr         x8
	cmp         x0,#0
	ble         |$LN17@operator|
	ldr         x8,[x19]
	ldr         x8,[x8]
	add         x8,x8,#4
	ldr         w8,[x8]
	sxtw        x9,w8
	ldr         x8,[x19]
	add         x0,x8,x9
	adrp        x8,|__imp_?width@ios_base@std@@QEBA_JXZ|
	ldr         x8,[x8,|__imp_?width@ios_base@std@@QEBA_JXZ|]
	blr         x8
	ldr         x8,[x19,#0x18]
	cmp         x0,x8
	ble         |$LN17@operator|
	ldr         x8,[x19]
	ldr         x8,[x8]
	add         x8,x8,#4
	ldr         w8,[x8]
	sxtw        x9,w8
	ldr         x8,[x19]
	add         x0,x8,x9
	adrp        x8,|__imp_?width@ios_base@std@@QEBA_JXZ|
	ldr         x8,[x8,|__imp_?width@ios_base@std@@QEBA_JXZ|]
	blr         x8
	ldr         x8,[x19,#0x18]
	sub         x8,x0,x8
	str         x8,[x19,#0x70]
	b           |$LN18@operator|
|$LN17@operator|
	mov         x8,#0
	str         x8,[x19,#0x70]
|$LN18@operator|
	ldr         x8,[x19,#0x70]
	str         x8,[x19,#0x20]

; 769  :     const typename _Myos::sentry _Ok(_Ostr);

	ldr         x1,[x19]
	add         x0,x19,#0x30
	bl          |??0sentry@?$basic_ostream@DU?$char_traits@D@std@@@std@@QEAA@AEAV12@@Z|
	nop

; 770  : 
; 771  :     if (!_Ok) {

	add         x0,x19,#0x30
	bl          |??Bsentry@?$basic_ostream@DU?$char_traits@D@std@@@std@@QEBA_NXZ|
	uxtb        w8,w0
	mov         w8,w8
	cmp         w8,#0
	bne         |$LN8@operator|

; 772  :         _State |= ios_base::badbit;

	ldr         w8,[x19,#0x10]
	orr         w8,w8,#4
	str         w8,[x19,#0x10]

; 773  :     } else { // state okay, insert

	b           |$LN9@operator|
|$LN8@operator|

; 774  :         _TRY_IO_BEGIN
; 775  :         if ((_Ostr.flags() & ios_base::adjustfield) != ios_base::left) {

	ldr         x8,[x19]
	ldr         x8,[x8]
	add         x8,x8,#4
	ldr         w8,[x8]
	sxtw        x9,w8
	ldr         x8,[x19]
	add         x0,x8,x9
	adrp        x8,|__imp_?flags@ios_base@std@@QEBAHXZ|
	ldr         x8,[x8,|__imp_?flags@ios_base@std@@QEBAHXZ|]
	blr         x8
	str         w0,[x19,#0x78]
	ldr         w8,[x19,#0x78]
	and         w8,w8,#0x1C0
	cmp         w8,#0x40
	beq         |$LN11@operator|

; 776  :             for (; 0 < _Pad; --_Pad) { // pad on left

	b           |$LN4@operator|
|$LN2@operator|
	ldr         x8,[x19,#0x20]
	sub         x8,x8,#1
	str         x8,[x19,#0x20]
|$LN4@operator|
	ldr         x9,[x19,#0x20]
	mov         x8,#0
	cmp         x8,x9
	bge         |$LN11@operator|

; 777  :                 if (_Traits::eq_int_type(_Traits::eof(), _Ostr.rdbuf()->sputc(_Ostr.fill()))) {

	ldr         x8,[x19]
	ldr         x8,[x8]
	add         x8,x8,#4
	ldr         w8,[x8]
	sxtw        x9,w8
	ldr         x8,[x19]
	add         x0,x8,x9
	adrp        x8,|__imp_?rdbuf@?$basic_ios@DU?$char_traits@D@std@@@std@@QEBAPEAV?$basic_streambuf@DU?$char_traits@D@std@@@2@XZ|
	ldr         x8,[x8,|__imp_?rdbuf@?$basic_ios@DU?$char_traits@D@std@@@std@@QEBAPEAV?$basic_streambuf@DU?$char_traits@D@std@@@2@XZ|]
	blr         x8
	str         x0,[x19,#0x80]
	ldr         x8,[x19,#0x80]
	str         x8,[x19,#0x88]
	ldr         x8,[x19]
	ldr         x8,[x8]
	add         x8,x8,#4
	ldr         w8,[x8]
	sxtw        x9,w8
	ldr         x8,[x19]
	add         x0,x8,x9
	adrp        x8,|__imp_?fill@?$basic_ios@DU?$char_traits@D@std@@@std@@QEBADXZ|
	ldr         x8,[x8,|__imp_?fill@?$basic_ios@DU?$char_traits@D@std@@@std@@QEBADXZ|]
	blr         x8
	sxtb        w8,w0
	strb        w8,[x19,#0x90]
	ldrsb       w8,[x19,#0x90]
	strb        w8,[x19,#0x91]
	ldrsb       w1,[x19,#0x91]
	ldr         x0,[x19,#0x88]
	adrp        x8,|__imp_?sputc@?$basic_streambuf@DU?$char_traits@D@std@@@std@@QEAAHD@Z|
	ldr         x8,[x8,|__imp_?sputc@?$basic_streambuf@DU?$char_traits@D@std@@@std@@QEAAHD@Z|]
	blr         x8
	str         w0,[x19,#0x94]
	ldr         w8,[x19,#0x94]
	str         w8,[x19,#0x44]
	bl          |?eof@?$_Narrow_char_traits@DH@std@@SAHXZ|
	mov         w0,w0
	str         w0,[x19,#0x48]
	add         x1,x19,#0x44
	add         x0,x19,#0x48
	bl          |?eq_int_type@?$_Narrow_char_traits@DH@std@@SA_NAEBH0@Z|
	uxtb        w8,w0
	mov         w8,w8
	cmp         w8,#0
	beq         |$LN12@operator|

; 778  :                     _State |= ios_base::badbit; // insertion failed, quit

	ldr         w8,[x19,#0x10]
	orr         w8,w8,#4
	str         w8,[x19,#0x10]

; 779  :                     break;

	b           |$LN11@operator|
|$LN12@operator|

; 780  :                 }
; 781  :             }

	b           |$LN2@operator|
|$LN11@operator|

; 782  :         }
; 783  : 
; 784  :         if (_State == ios_base::goodbit && _Ostr.rdbuf()->sputn(_Val, _Count) != _Count) {

	ldr         w8,[x19,#0x10]
	cmp         w8,#0
	bne         |$LN13@operator|
	ldr         x8,[x19]
	ldr         x8,[x8]
	add         x8,x8,#4
	ldr         w8,[x8]
	sxtw        x9,w8
	ldr         x8,[x19]
	add         x0,x8,x9
	adrp        x8,|__imp_?rdbuf@?$basic_ios@DU?$char_traits@D@std@@@std@@QEBAPEAV?$basic_streambuf@DU?$char_traits@D@std@@@2@XZ|
	ldr         x8,[x8,|__imp_?rdbuf@?$basic_ios@DU?$char_traits@D@std@@@std@@QEBAPEAV?$basic_streambuf@DU?$char_traits@D@std@@@2@XZ|]
	blr         x8
	str         x0,[x19,#0x98]
	ldr         x8,[x19,#0x98]
	str         x8,[x19,#0xA0]
	ldr         x2,[x19,#0x18]
	ldr         x1,[x19,#8]
	ldr         x0,[x19,#0xA0]
	adrp        x8,|__imp_?sputn@?$basic_streambuf@DU?$char_traits@D@std@@@std@@QEAA_JPEBD_J@Z|
	ldr         x8,[x8,|__imp_?sputn@?$basic_streambuf@DU?$char_traits@D@std@@@std@@QEAA_JPEBD_J@Z|]
	blr         x8
	str         x0,[x19,#0xA8]
	ldr         x9,[x19,#0x18]
	ldr         x8,[x19,#0xA8]
	cmp         x8,x9
	beq         |$LN13@operator|

; 785  :             _State |= ios_base::badbit;

	ldr         w8,[x19,#0x10]
	orr         w8,w8,#4
	str         w8,[x19,#0x10]
|$LN13@operator|

; 786  :         }
; 787  : 
; 788  :         if (_State == ios_base::goodbit) {

	ldr         w8,[x19,#0x10]
	cmp         w8,#0
	bne         |$LN14@operator|

; 789  :             for (; 0 < _Pad; --_Pad) { // pad on right

	b           |$LN7@operator|
|$LN5@operator|
	ldr         x8,[x19,#0x20]
	sub         x8,x8,#1
	str         x8,[x19,#0x20]
|$LN7@operator|
	ldr         x9,[x19,#0x20]
	mov         x8,#0
	cmp         x8,x9
	bge         |$LN14@operator|

; 790  :                 if (_Traits::eq_int_type(_Traits::eof(), _Ostr.rdbuf()->sputc(_Ostr.fill()))) {

	ldr         x8,[x19]
	ldr         x8,[x8]
	add         x8,x8,#4
	ldr         w8,[x8]
	sxtw        x9,w8
	ldr         x8,[x19]
	add         x0,x8,x9
	adrp        x8,|__imp_?rdbuf@?$basic_ios@DU?$char_traits@D@std@@@std@@QEBAPEAV?$basic_streambuf@DU?$char_traits@D@std@@@2@XZ|
	ldr         x8,[x8,|__imp_?rdbuf@?$basic_ios@DU?$char_traits@D@std@@@std@@QEBAPEAV?$basic_streambuf@DU?$char_traits@D@std@@@2@XZ|]
	blr         x8
	str         x0,[x19,#0xB0]
	ldr         x8,[x19,#0xB0]
	str         x8,[x19,#0xB8]
	ldr         x8,[x19]
	ldr         x8,[x8]
	add         x8,x8,#4
	ldr         w8,[x8]
	sxtw        x9,w8
	ldr         x8,[x19]
	add         x0,x8,x9
	adrp        x8,|__imp_?fill@?$basic_ios@DU?$char_traits@D@std@@@std@@QEBADXZ|
	ldr         x8,[x8,|__imp_?fill@?$basic_ios@DU?$char_traits@D@std@@@std@@QEBADXZ|]
	blr         x8
	sxtb        w8,w0
	strb        w8,[x19,#0xC0]
	ldrsb       w8,[x19,#0xC0]
	strb        w8,[x19,#0xC1]
	ldrsb       w1,[x19,#0xC1]
	ldr         x0,[x19,#0xB8]
	adrp        x8,|__imp_?sputc@?$basic_streambuf@DU?$char_traits@D@std@@@std@@QEAAHD@Z|
	ldr         x8,[x8,|__imp_?sputc@?$basic_streambuf@DU?$char_traits@D@std@@@std@@QEAAHD@Z|]
	blr         x8
	str         w0,[x19,#0xC4]
	ldr         w8,[x19,#0xC4]
	str         w8,[x19,#0x4C]
	bl          |?eof@?$_Narrow_char_traits@DH@std@@SAHXZ|
	mov         w0,w0
	str         w0,[x19,#0x50]
	add         x1,x19,#0x4C
	add         x0,x19,#0x50
	bl          |?eq_int_type@?$_Narrow_char_traits@DH@std@@SA_NAEBH0@Z|
	uxtb        w8,w0
	mov         w8,w8
	cmp         w8,#0
	beq         |$LN15@operator|

; 791  :                     _State |= ios_base::badbit; // insertion failed, quit

	ldr         w8,[x19,#0x10]
	orr         w8,w8,#4
	str         w8,[x19,#0x10]

; 792  :                     break;

	b           |$LN14@operator|
|$LN15@operator|

; 793  :                 }
; 794  :             }

	b           |$LN5@operator|
|$LN14@operator|

; 795  :         }
; 796  : 
; 797  :         _Ostr.width(0);

	ldr         x8,[x19]
	ldr         x8,[x8]
	add         x8,x8,#4
	ldr         w8,[x8]
	sxtw        x9,w8
	ldr         x8,[x19]
	add         x8,x8,x9
	str         x8,[x19,#0xC8]
	mov         x1,#0
	ldr         x0,[x19,#0xC8]
	adrp        x8,|__imp_?width@ios_base@std@@QEAA_J_J@Z|
	ldr         x8,[x8,|__imp_?width@ios_base@std@@QEAA_J_J@Z|]
	blr         x8
	nop
	b           |$LN9@operator|
|$LN23@operator|
|$LN9@operator|

; 798  :         _CATCH_IO_(ios_base, _Ostr)
; 799  :     }
; 800  : 
; 801  :     _Ostr.setstate(_State);

	ldr         x8,[x19]
	ldr         x8,[x8]
	add         x8,x8,#4
	ldr         w8,[x8]
	sxtw        x9,w8
	ldr         x8,[x19]
	add         x8,x8,x9
	str         x8,[x19,#0xD8]
	mov         w2,#0
	ldr         w1,[x19,#0x10]
	ldr         x0,[x19,#0xD8]
	adrp        x8,|__imp_?setstate@?$basic_ios@DU?$char_traits@D@std@@@std@@QEAAXH_N@Z|
	ldr         x8,[x8,|__imp_?setstate@?$basic_ios@DU?$char_traits@D@std@@@std@@QEAAXH_N@Z|]
	blr         x8

; 802  :     return _Ostr;

	ldr         x8,[x19]
	str         x8,[x19,#0x58]
	add         x0,x19,#0x30
	bl          |??1sentry@?$basic_ostream@DU?$char_traits@D@std@@@std@@QEAA@XZ|
	ldr         x0,[x19,#0x58]
	mov         x20,x0
	mov         x21,x1
	mov         x0,x19
	adrp        x8,|??$?6U?$char_traits@D@std@@@std@@YAAEAV?$basic_ostream@DU?$char_traits@D@std@@@0@AEAV10@PEBD@Z$rtcFrameData|
	add         x1,x8,|??$?6U?$char_traits@D@std@@@std@@YAAEAV?$basic_ostream@DU?$char_traits@D@std@@@0@AEAV10@PEBD@Z$rtcFrameData|
	bl          _RTC_CheckStackVars
	mov         x0,x20
	mov         x1,x21
	add         sp,sp,#0xE0
	bl          __security_pop_cookie
	ldp         x21,x22,[sp,#0x20]
	ldp         x19,x20,[sp,#0x10]
	ldp         fp,lr,[sp],#0x30
	ret

	ENDP  ; |??$?6U?$char_traits@D@std@@@std@@YAAEAV?$basic_ostream@DU?$char_traits@D@std@@@0@AEAV10@PEBD@Z|, std::operator<<<std::char_traits<char> >

; Function compile flags: /Odtp /RTCsu

	AREA	|.text$x|, DATA

|?dtor$0@?0???$?6U?$char_traits@D@std@@@std@@YAAEAV?$basic_ostream@DU?$char_traits@D@std@@@0@AEAV10@PEBD@Z@4HA| PROC ; `std::operator<<<std::char_traits<char> >'::`1'::dtor$0
	stp         fp,lr,[sp,#-0x30]!
	stp         x20,x21,[sp,#0x10]
	str         x22,[sp,#0x20]
	add         x0,x19,#0x30
	bl          |??1sentry@?$basic_ostream@DU?$char_traits@D@std@@@std@@QEAA@XZ|
	ldr         x22,[sp,#0x20]
	ldp         x20,x21,[sp,#0x10]
	ldp         fp,lr,[sp],#0x30
	ret

	ENDP  ; |??$?6U?$char_traits@D@std@@@std@@YAAEAV?$basic_ostream@DU?$char_traits@D@std@@@0@AEAV10@PEBD@Z|, std::operator<<<std::char_traits<char> >

; Function compile flags: /Odtp /RTCsu

	AREA	|.text$x|, DATA

|?catch$1@?0???$?6U?$char_traits@D@std@@@std@@YAAEAV?$basic_ostream@DU?$char_traits@D@std@@@0@AEAV10@PEBD@Z@4HA| PROC ; `std::operator<<<std::char_traits<char> >'::`1'::catch$1

; 798  :         _CATCH_IO_(ios_base, _Ostr)

	stp         fp,lr,[sp,#-0x30]!
	stp         x20,x21,[sp,#0x10]
	str         x22,[sp,#0x20]
|__catch$??$?6U?$char_traits@D@std@@@std@@YAAEAV?$basic_ostream@DU?$char_traits@D@std@@@0@AEAV10@PEBD@Z$0|
	ldr         x8,[x19]
	ldr         x8,[x8]
	add         x8,x8,#4
	ldr         w8,[x8]
	sxtw        x9,w8
	ldr         x8,[x19]
	add         x8,x8,x9
	str         x8,[x19,#0xD0]
	mov         w2,#1
	mov         w1,#4
	ldr         x0,[x19,#0xD0]
	adrp        x8,|__imp_?setstate@?$basic_ios@DU?$char_traits@D@std@@@std@@QEAAXH_N@Z|
	ldr         x8,[x8,|__imp_?setstate@?$basic_ios@DU?$char_traits@D@std@@@std@@QEAAXH_N@Z|]
	blr         x8
	nop
	adrp        x0,|$LN23@catch$1|
	add         x0,x0,|$LN23@catch$1|
	ldr         x22,[sp,#0x20]
	ldp         x20,x21,[sp,#0x10]
	ldp         fp,lr,[sp],#0x30
	ret
	svc         #3

	ENDP  ; |??$?6U?$char_traits@D@std@@@std@@YAAEAV?$basic_ostream@DU?$char_traits@D@std@@@0@AEAV10@PEBD@Z|, std::operator<<<std::char_traits<char> >

; Function compile flags: /Odtp /RTCsu
; File D:\data\code\cpp\ProjectSandbox\src\main.cpp

	AREA	|.text$mn|, CODE, ARM64

|main|	PROC

; 4    : {

|$LN3|
	stp         fp,lr,[sp,#-0x30]!
	stp         x20,x21,[sp,#0x10]
	str         x22,[sp,#0x20]
	mov         fp,sp
	sub         sp,sp,#0x10
	movi        x20,#-0x3333333333333334
	str         x20,[sp]
	str         x20,[sp,#8]

; 5    : 	// print the size of void pointer to distinguish platforms
; 6    : 	std::cout << "Size of void pointer: " << sizeof(void*) << std::endl;

	adrp        x8,|$SG47690|
	add         x1,x8,|$SG47690|
	adrp        x8,|__imp_?cout@std@@3V?$basic_ostream@DU?$char_traits@D@std@@@1@A|
	ldr         x0,[x8,|__imp_?cout@std@@3V?$basic_ostream@DU?$char_traits@D@std@@@1@A|]
	bl          |??$?6U?$char_traits@D@std@@@std@@YAAEAV?$basic_ostream@DU?$char_traits@D@std@@@0@AEAV10@PEBD@Z|
	str         x0,[sp]
	mov         x1,#8
	ldr         x0,[sp]
	adrp        x8,|__imp_??6?$basic_ostream@DU?$char_traits@D@std@@@std@@QEAAAEAV01@_K@Z|
	ldr         x8,[x8,|__imp_??6?$basic_ostream@DU?$char_traits@D@std@@@std@@QEAAAEAV01@_K@Z|]
	blr         x8
	str         x0,[sp,#8]
	adrp        x8,|??$endl@DU?$char_traits@D@std@@@std@@YAAEAV?$basic_ostream@DU?$char_traits@D@std@@@0@AEAV10@@Z|
	add         x1,x8,|??$endl@DU?$char_traits@D@std@@@std@@YAAEAV?$basic_ostream@DU?$char_traits@D@std@@@0@AEAV10@@Z|
	ldr         x0,[sp,#8]
	adrp        x8,|__imp_??6?$basic_ostream@DU?$char_traits@D@std@@@std@@QEAAAEAV01@P6AAEAV01@AEAV01@@Z@Z|
	ldr         x8,[x8,|__imp_??6?$basic_ostream@DU?$char_traits@D@std@@@std@@QEAAAEAV01@P6AAEAV01@AEAV01@@Z@Z|]
	blr         x8

; 7    : 
; 8    : 	return 0;

	mov         w0,#0
	mov         sp,fp
	ldr         x22,[sp,#0x20]
	ldp         x20,x21,[sp,#0x10]
	ldp         fp,lr,[sp],#0x30
	ret

	ENDP  ; |main|

; Function compile flags: /Odtp /RTCsu
; File C:\Program Files\Microsoft Visual Studio\2022\Community\VC\Tools\MSVC\14.33.31629\include\xstring

	AREA	|.text$mn|, CODE, ARM64

|?eof@?$_Narrow_char_traits@DH@std@@SAHXZ| PROC		; std::_Narrow_char_traits<char,int>::eof

; 471  :     _NODISCARD static constexpr int_type eof() noexcept {

|$LN3|
	stp         fp,lr,[sp,#-0x30]!
	stp         x20,x21,[sp,#0x10]
	str         x22,[sp,#0x20]
	mov         fp,sp

; 472  :         return static_cast<int_type>(EOF);

	mov         w0,#-1
	mov         sp,fp
	ldr         x22,[sp,#0x20]
	ldp         x20,x21,[sp,#0x10]
	ldp         fp,lr,[sp],#0x30
	ret

	ENDP  ; |?eof@?$_Narrow_char_traits@DH@std@@SAHXZ|, std::_Narrow_char_traits<char,int>::eof

; Function compile flags: /Odtp /RTCsu
; File C:\Program Files\Microsoft Visual Studio\2022\Community\VC\Tools\MSVC\14.33.31629\include\xstring

	AREA	|.text$mn|, CODE, ARM64

|?eq_int_type@?$_Narrow_char_traits@DH@std@@SA_NAEBH0@Z| PROC ; std::_Narrow_char_traits<char,int>::eq_int_type

; 463  :     _NODISCARD static constexpr bool eq_int_type(const int_type& _Left, const int_type& _Right) noexcept {

|$LN5|
	stp         fp,lr,[sp,#-0x30]!
	stp         x20,x21,[sp,#0x10]
	str         x22,[sp,#0x20]
	mov         fp,sp
	sub         sp,sp,#0x20
	movi        x20,#-0x3333333333333334
	movi        x21,#-0x3333333333333334
	stp         x20,x21,[sp]
	stp         x20,x21,[sp,#0x10]
	str         x0,[sp]
	str         x1,[sp,#8]

; 464  :         return _Left == _Right;

	ldr         x8,[sp,#8]
	ldr         w9,[x8]
	ldr         x8,[sp]
	ldr         w8,[x8]
	cmp         w8,w9
	bne         |$LN3@eq_int_typ|
	mov         w8,#1
	str         w8,[sp,#0x10]
	b           |$LN4@eq_int_typ|
|$LN3@eq_int_typ|
	mov         w8,#0
	str         w8,[sp,#0x10]
|$LN4@eq_int_typ|
	ldr         w8,[sp,#0x10]
	uxtb        w0,w8
	mov         w0,w0
	mov         sp,fp
	ldr         x22,[sp,#0x20]
	ldp         x20,x21,[sp,#0x10]
	ldp         fp,lr,[sp],#0x30
	ret

	ENDP  ; |?eq_int_type@?$_Narrow_char_traits@DH@std@@SA_NAEBH0@Z|, std::_Narrow_char_traits<char,int>::eq_int_type

; Function compile flags: /Odtp /RTCsu
; File C:\Program Files\Microsoft Visual Studio\2022\Community\VC\Tools\MSVC\14.33.31629\include\xstring

	AREA	|.text$mn|, CODE, ARM64

|?length@?$_Narrow_char_traits@DH@std@@SA_KQEBD@Z| PROC	; std::_Narrow_char_traits<char,int>::length

; 385  :     _NODISCARD static _CONSTEXPR17 size_t length(_In_z_ const _Elem* const _First) noexcept /* strengthened */ {

|$LN5|
	stp         fp,lr,[sp,#-0x30]!
	stp         x20,x21,[sp,#0x10]
	str         x22,[sp,#0x20]
	mov         fp,sp
	sub         sp,sp,#0x20
	movi        x20,#-0x3333333333333334
	movi        x21,#-0x3333333333333334
	stp         x20,x21,[sp]
	stp         x20,x21,[sp,#0x10]
	str         x0,[sp]

; 386  :         // find length of null-terminated string
; 387  : #if _HAS_CXX17
; 388  : #ifdef __cpp_char8_t
; 389  :         if constexpr (is_same_v<_Elem, char8_t>) {
; 390  : #if _HAS_U8_INTRINSICS
; 391  :             return __builtin_u8strlen(_First);
; 392  : #else // ^^^ use u8 intrinsics / no u8 intrinsics vvv
; 393  :             return _Primary_char_traits::length(_First);
; 394  : #endif // _HAS_U8_INTRINSICS
; 395  :         } else
; 396  : #endif // __cpp_char8_t
; 397  :         {
; 398  :             return __builtin_strlen(_First);

	ldr         x8,[sp]
	str         x8,[sp,#8]
|$LN4@length|
	ldr         x8,[sp,#8]
	ldrsb       w8,[x8]
	cmp         w8,#0
	beq         |$LN3@length|
	ldr         x8,[sp,#8]
	add         x8,x8,#1
	str         x8,[sp,#8]
	b           |$LN4@length|
|$LN3@length|
	ldr         x9,[sp,#8]
	ldr         x8,[sp]
	sub         x8,x9,x8
	str         x8,[sp,#0x10]
	ldr         x0,[sp,#0x10]
	mov         sp,fp
	ldr         x22,[sp,#0x20]
	ldp         x20,x21,[sp,#0x10]
	ldp         fp,lr,[sp],#0x30
	ret

	ENDP  ; |?length@?$_Narrow_char_traits@DH@std@@SA_KQEBD@Z|, std::_Narrow_char_traits<char,int>::length

; Function compile flags: /Odtp /RTCsu
; File D:\data\code\cpp\ProjectSandbox\src\main.cpp

	AREA	|.text$mn|, CODE, ARM64

|?__empty_global_delete@@YAXPEAX_KW4align_val_t@std@@@Z| PROC ; __empty_global_delete

|$LN3|
	stp         fp,lr,[sp,#-0x30]!
	stp         x20,x21,[sp,#0x10]
	str         x22,[sp,#0x20]
	mov         fp,sp
	sub         sp,sp,#0x20
	movi        x20,#-0x3333333333333334
	movi        x21,#-0x3333333333333334
	stp         x20,x21,[sp]
	stp         x20,x21,[sp,#0x10]
	str         x0,[sp]
	str         x1,[sp,#8]
	str         x2,[sp,#0x10]
	mov         sp,fp
	ldr         x22,[sp,#0x20]
	ldp         x20,x21,[sp,#0x10]
	ldp         fp,lr,[sp],#0x30
	ret

	ENDP  ; |?__empty_global_delete@@YAXPEAX_KW4align_val_t@std@@@Z|, __empty_global_delete

; Function compile flags: /Odtp /RTCsu
; File D:\data\code\cpp\ProjectSandbox\src\main.cpp

	AREA	|.text$mn|, CODE, ARM64

|?__empty_global_delete@@YAXPEAXW4align_val_t@std@@@Z| PROC ; __empty_global_delete

|$LN3|
	stp         fp,lr,[sp,#-0x30]!
	stp         x20,x21,[sp,#0x10]
	str         x22,[sp,#0x20]
	mov         fp,sp
	sub         sp,sp,#0x10
	movi        x20,#-0x3333333333333334
	str         x20,[sp]
	str         x20,[sp,#8]
	str         x0,[sp]
	str         x1,[sp,#8]
	mov         sp,fp
	ldr         x22,[sp,#0x20]
	ldp         x20,x21,[sp,#0x10]
	ldp         fp,lr,[sp],#0x30
	ret

	ENDP  ; |?__empty_global_delete@@YAXPEAXW4align_val_t@std@@@Z|, __empty_global_delete

; Function compile flags: /Odtp /RTCsu
; File D:\data\code\cpp\ProjectSandbox\src\main.cpp

	AREA	|.text$mn|, CODE, ARM64

|?__empty_global_delete@@YAXPEAX_K@Z| PROC		; __empty_global_delete

|$LN3|
	stp         fp,lr,[sp,#-0x30]!
	stp         x20,x21,[sp,#0x10]
	str         x22,[sp,#0x20]
	mov         fp,sp
	sub         sp,sp,#0x10
	movi        x20,#-0x3333333333333334
	str         x20,[sp]
	str         x20,[sp,#8]
	str         x0,[sp]
	str         x1,[sp,#8]
	mov         sp,fp
	ldr         x22,[sp,#0x20]
	ldp         x20,x21,[sp,#0x10]
	ldp         fp,lr,[sp],#0x30
	ret

	ENDP  ; |?__empty_global_delete@@YAXPEAX_K@Z|, __empty_global_delete

; Function compile flags: /Odtp /RTCsu
; File D:\data\code\cpp\ProjectSandbox\src\main.cpp

	AREA	|.text$mn|, CODE, ARM64

|?__empty_global_delete@@YAXPEAX@Z| PROC		; __empty_global_delete

|$LN3|
	stp         fp,lr,[sp,#-0x30]!
	stp         x20,x21,[sp,#0x10]
	str         x22,[sp,#0x20]
	mov         fp,sp
	sub         sp,sp,#0x10
	movi        x20,#-0x3333333333333334
	str         x20,[sp]
	str         x20,[sp,#8]
	str         x0,[sp]
	mov         sp,fp
	ldr         x22,[sp,#0x20]
	ldp         x20,x21,[sp,#0x10]
	ldp         fp,lr,[sp],#0x30
	ret

	ENDP  ; |?__empty_global_delete@@YAXPEAX@Z|, __empty_global_delete

	END
